target datalayout = "e-m:e-p270:32:32-p271:32:32-p272:64:64-i64:64-i128:128-f80:128-n8:16:32:64-S128"
target triple = "x86_64-unknown-linux-gnu"

%"class.std::__cxx11::basic_string" = type { %"struct.std::__cxx11::basic_string<char>::_Alloc_hider", i64, %union.anon }
%"struct.std::__cxx11::basic_string<char>::_Alloc_hider" = type { ptr }
%union.anon = type { i64, [8 x i8] }
%"class.rocksdb::Slice" = type { ptr, i64 }
%"class.rocksdb::Status" = type { i8, i8, i8, i8, i8, i8, %"class.std::unique_ptr.2" }
%"class.std::unique_ptr.2" = type { %"struct.std::__uniq_ptr_data.3" }
%"struct.std::__uniq_ptr_data.3" = type { %"class.std::__uniq_ptr_impl.4" }
%"class.std::__uniq_ptr_impl.4" = type { %"class.std::tuple.5" }
%"class.std::tuple.5" = type { %"struct.std::_Tuple_impl.6" }
%"struct.std::_Tuple_impl.6" = type { %"struct.std::_Head_base.9" }
%"struct.std::_Head_base.9" = type { ptr }
%"class.rocksdb::CuckooTableReader" = type { %"class.rocksdb::TableReader", %"class.std::unique_ptr", %"class.rocksdb::Slice", i8, i8, i8, %"class.std::shared_ptr", %"class.rocksdb::Status", i32, %"class.std::__cxx11::basic_string", i32, i32, i32, i32, i32, i32, i64, ptr, ptr }
%"class.rocksdb::TableReader" = type { ptr }
%"class.std::unique_ptr" = type { %"struct.std::__uniq_ptr_data" }
%"struct.std::__uniq_ptr_data" = type { %"class.std::__uniq_ptr_impl" }
%"class.std::__uniq_ptr_impl" = type { %"class.std::tuple" }
%"class.std::tuple" = type { %"struct.std::_Tuple_impl" }
%"struct.std::_Tuple_impl" = type { %"struct.std::_Head_base.1" }
%"struct.std::_Head_base.1" = type { ptr }
%"class.std::shared_ptr" = type { %"class.std::__shared_ptr" }
%"class.std::__shared_ptr" = type { ptr, %"class.std::__shared_count" }
%"class.std::__shared_count" = type { ptr }

; Function Attrs: mustprogress nounwind uwtable
define linkonce_odr void @_ZN7rocksdb5SliceC2EPKcm(ptr noundef nonnull align 8 dereferenceable(16) %this, ptr noundef %d, i64 noundef %n) unnamed_addr #1 comdat align 2 {
entry:
  %this.addr = alloca ptr, align 8
  %d.addr = alloca ptr, align 8
  %n.addr = alloca i64, align 8
  store ptr %this, ptr %this.addr, align 8
  store ptr %d, ptr %d.addr, align 8
  store i64 %n, ptr %n.addr, align 8
  %this1 = load ptr, ptr %this.addr, align 8
  %data_ = getelementptr inbounds %"class.rocksdb::Slice", ptr %this1, i32 0, i32 0
  %0 = load ptr, ptr %d.addr, align 8
  store ptr %0, ptr %data_, align 8
  %size_ = getelementptr inbounds %"class.rocksdb::Slice", ptr %this1, i32 0, i32 1
  %1 = load i64, ptr %n.addr, align 8
  store i64 %1, ptr %size_, align 8
  ret void
}

; Function Attrs: mustprogress nounwind uwtable
define linkonce_odr noundef i64 @_ZNK7rocksdb5Slice4sizeEv(ptr noundef nonnull align 8 dereferenceable(16) %this) #1 comdat align 2 {
entry:
  %this.addr = alloca ptr, align 8
  store ptr %this, ptr %this.addr, align 8
  %this1 = load ptr, ptr %this.addr, align 8
  %size_ = getelementptr inbounds %"class.rocksdb::Slice", ptr %this1, i32 0, i32 1
  %0 = load i64, ptr %size_, align 8
  ret i64 %0
}

; Function Attrs: mustprogress uwtable
define internal noundef i64 @_ZN7rocksdbL10CuckooHashERKNS_5SliceEjbmbPFmS2_jmE(ptr noundef nonnull align 8 dereferenceable(16) %user_key, i32 noundef %hash_cnt, i1 noundef zeroext %use_module_hash, i64 noundef %table_size_, i1 noundef zeroext %identity_as_first_hash, ptr noundef %get_slice_hash) #0 {
entry:
  %retval = alloca i64, align 8
  %user_key.addr = alloca ptr, align 8
  %hash_cnt.addr = alloca i32, align 4
  %use_module_hash.addr = alloca i8, align 1
  %table_size_.addr = alloca i64, align 8
  %identity_as_first_hash.addr = alloca i8, align 1
  %get_slice_hash.addr = alloca ptr, align 8
  %value = alloca i64, align 8
  store ptr %user_key, ptr %user_key.addr, align 8
  store i32 %hash_cnt, ptr %hash_cnt.addr, align 4
  %frombool = zext i1 %use_module_hash to i8
  store i8 %frombool, ptr %use_module_hash.addr, align 1
  store i64 %table_size_, ptr %table_size_.addr, align 8
  %frombool1 = zext i1 %identity_as_first_hash to i8
  store i8 %frombool1, ptr %identity_as_first_hash.addr, align 1
  store ptr %get_slice_hash, ptr %get_slice_hash.addr, align 8
  store i64 0, ptr %value, align 8
  %0 = load i32, ptr %hash_cnt.addr, align 4
  %cmp = icmp eq i32 %0, 0
  br i1 %cmp, label %land.lhs.true, label %if.else

land.lhs.true:                                    ; preds = %entry
  %1 = load i8, ptr %identity_as_first_hash.addr, align 1
  %tobool = trunc i8 %1 to i1
  br i1 %tobool, label %if.then, label %if.else

if.then:                                          ; preds = %land.lhs.true
  %2 = load ptr, ptr %user_key.addr, align 8
  %call = call noundef ptr @_ZNK7rocksdb5Slice4dataEv(ptr noundef nonnull align 8 dereferenceable(16) %2)
  %3 = load i64, ptr %call, align 8
  store i64 %3, ptr %value, align 8
  br label %if.end

if.else:                                          ; preds = %land.lhs.true, %entry
  %4 = load ptr, ptr %user_key.addr, align 8
  %call2 = call noundef ptr @_ZNK7rocksdb5Slice4dataEv(ptr noundef nonnull align 8 dereferenceable(16) %4)
  %5 = load ptr, ptr %user_key.addr, align 8
  %call3 = call noundef i64 @_ZNK7rocksdb5Slice4sizeEv(ptr noundef nonnull align 8 dereferenceable(16) %5)
  %conv = trunc i64 %call3 to i32
  %6 = load i32, ptr %hash_cnt.addr, align 4
  %mul = mul i32 816922183, %6
  %call4 = call noundef i64 @_Z13MurmurHash64APKvij(ptr noundef %call2, i32 noundef %conv, i32 noundef %mul)
  store i64 %call4, ptr %value, align 8
  br label %if.end

if.end:                                           ; preds = %if.else, %if.then
  %7 = load i8, ptr %use_module_hash.addr, align 1
  %tobool5 = trunc i8 %7 to i1
  br i1 %tobool5, label %if.then6, label %if.else7

if.then6:                                         ; preds = %if.end
  %8 = load i64, ptr %value, align 8
  %9 = load i64, ptr %table_size_.addr, align 8
  %rem = urem i64 %8, %9
  store i64 %rem, ptr %retval, align 8
  br label %return

if.else7:                                         ; preds = %if.end
  %10 = load i64, ptr %value, align 8
  %11 = load i64, ptr %table_size_.addr, align 8
  %sub = sub i64 %11, 1
  %and = and i64 %10, %sub
  store i64 %and, ptr %retval, align 8
  br label %return

return:                                           ; preds = %if.else7, %if.then6
  %12 = load i64, ptr %retval, align 8
  ret i64 %12
}

; Function Attrs: mustprogress nounwind uwtable
define linkonce_odr noundef ptr @_ZNK7rocksdb5Slice4dataEv(ptr noundef nonnull align 8 dereferenceable(16) %this) #1 comdat align 2 {
entry:
  %this.addr = alloca ptr, align 8
  store ptr %this, ptr %this.addr, align 8
  %this1 = load ptr, ptr %this.addr, align 8
  %data_ = getelementptr inbounds %"class.rocksdb::Slice", ptr %this1, i32 0, i32 0
  %0 = load ptr, ptr %data_, align 8
  ret ptr %0
}

; Function Attrs: mustprogress uwtable
define linkonce_odr { ptr, i64 } @_ZN7rocksdb14ExtractUserKeyERKNS_5SliceE(ptr noundef nonnull align 8 dereferenceable(16) %internal_key) #0 comdat {
entry:
  %retval = alloca %"class.rocksdb::Slice", align 8
  %internal_key.addr = alloca ptr, align 8
  store ptr %internal_key, ptr %internal_key.addr, align 8
  %0 = load ptr, ptr %internal_key.addr, align 8
  %call = call noundef ptr @_ZNK7rocksdb5Slice4dataEv(ptr noundef nonnull align 8 dereferenceable(16) %0)
  %1 = load ptr, ptr %internal_key.addr, align 8
  %call1 = call noundef i64 @_ZNK7rocksdb5Slice4sizeEv(ptr noundef nonnull align 8 dereferenceable(16) %1)
  %sub = sub i64 %call1, 8
  call void @_ZN7rocksdb5SliceC2EPKcm(ptr noundef nonnull align 8 dereferenceable(16) %retval, ptr noundef %call, i64 noundef %sub)
  %2 = load { ptr, i64 }, ptr %retval, align 8
  ret { ptr, i64 } %2
}

; Function Attrs: mustprogress uwtable
define void @_ZN7rocksdb17CuckooTableReader7PrepareERKNS_5SliceE(ptr noundef nonnull align 8 dereferenceable(160) %this, ptr noundef nonnull align 8 dereferenceable(16) %key) unnamed_addr #0 align 2 {
entry:
  %this.addr = alloca ptr, align 8
  %key.addr = alloca ptr, align 8
  %user_key = alloca %"class.rocksdb::Slice", align 8
  %addr = alloca i64, align 8
  %end_addr = alloca i64, align 8
  store ptr %this, ptr %this.addr, align 8
  store ptr %key, ptr %key.addr, align 8
  %this1 = load ptr, ptr %this.addr, align 8
  %0 = load ptr, ptr %key.addr, align 8
  %call = call { ptr, i64 } @_ZN7rocksdb14ExtractUserKeyERKNS_5SliceE(ptr noundef nonnull align 8 dereferenceable(16) %0)
  %1 = getelementptr inbounds { ptr, i64 }, ptr %user_key, i32 0, i32 0
  %2 = extractvalue { ptr, i64 } %call, 0
  store ptr %2, ptr %1, align 8
  %3 = getelementptr inbounds { ptr, i64 }, ptr %user_key, i32 0, i32 1
  %4 = extractvalue { ptr, i64 } %call, 1
  store i64 %4, ptr %3, align 8
  %file_data_ = getelementptr inbounds %"class.rocksdb::CuckooTableReader", ptr %this1, i32 0, i32 2
  %call2 = call noundef ptr @_ZNK7rocksdb5Slice4dataEv(ptr noundef nonnull align 8 dereferenceable(16) %file_data_)
  %5 = ptrtoint ptr %call2 to i64
  %bucket_length_ = getelementptr inbounds %"class.rocksdb::CuckooTableReader", ptr %this1, i32 0, i32 13
  %6 = load i32, ptr %bucket_length_, align 4
  %conv = zext i32 %6 to i64
  %use_module_hash_ = getelementptr inbounds %"class.rocksdb::CuckooTableReader", ptr %this1, i32 0, i32 5
  %7 = load i8, ptr %use_module_hash_, align 2
  %tobool = trunc i8 %7 to i1
  %table_size_ = getelementptr inbounds %"class.rocksdb::CuckooTableReader", ptr %this1, i32 0, i32 16
  %8 = load i64, ptr %table_size_, align 8
  %identity_as_first_hash_ = getelementptr inbounds %"class.rocksdb::CuckooTableReader", ptr %this1, i32 0, i32 4
  %9 = load i8, ptr %identity_as_first_hash_, align 1
  %tobool3 = trunc i8 %9 to i1
  %call4 = call noundef i64 @_ZN7rocksdbL10CuckooHashERKNS_5SliceEjbmbPFmS2_jmE(ptr noundef nonnull align 8 dereferenceable(16) %user_key, i32 noundef 0, i1 noundef zeroext %tobool, i64 noundef %8, i1 noundef zeroext %tobool3, ptr noundef null)
  %mul = mul i64 %conv, %call4
  %add = add i64 %5, %mul
  store i64 %add, ptr %addr, align 8
  %10 = load i64, ptr %addr, align 8
  %cuckoo_block_bytes_minus_one_ = getelementptr inbounds %"class.rocksdb::CuckooTableReader", ptr %this1, i32 0, i32 15
  %11 = load i32, ptr %cuckoo_block_bytes_minus_one_, align 4
  %conv5 = zext i32 %11 to i64
  %add6 = add i64 %10, %conv5
  store i64 %add6, ptr %end_addr, align 8
  %12 = load i64, ptr %addr, align 8
  %and = and i64 %12, -64
  store i64 %and, ptr %addr, align 8
  br label %for.cond

for.cond:                                         ; preds = %for.inc, %entry
  %13 = load i64, ptr %addr, align 8
  %14 = load i64, ptr %end_addr, align 8
  %cmp = icmp ult i64 %13, %14
  br i1 %cmp, label %for.body, label %for.end

for.body:                                         ; preds = %for.cond
  %15 = load i64, ptr %addr, align 8
  %16 = inttoptr i64 %15 to ptr
  call void @llvm.prefetch.p0(ptr %16, i32 0, i32 3, i32 1)
  br label %for.inc

for.inc:                                          ; preds = %for.body
  %17 = load i64, ptr %addr, align 8
  %add7 = add i64 %17, 64
  store i64 %add7, ptr %addr, align 8
  br label %for.cond, !llvm.loop !7

for.end:                                          ; preds = %for.cond
  ret void
}