; Function Attrs: mustprogress uwtable
define void @_ZN7rocksdb17CuckooTableReader7PrepareERKNS_5SliceE(ptr nocapture noundef nonnull readonly align 8 dereferenceable(160) %this, ptr nocapture noundef nonnull readonly align 8 dereferenceable(16) %key) unnamed_addr #2 align 2 {
entry:
  %0 = load ptr, ptr %key, align 8
  %file_data_ = getelementptr inbounds i8, ptr %this, i64 16
  %1 = load ptr, ptr %file_data_, align 8
  %2 = ptrtoint ptr %1 to i64
  %bucket_length_ = getelementptr inbounds i8, ptr %this, i64 124
  %3 = load i32, ptr %bucket_length_, align 4
  %conv = zext i32 %3 to i64
  %use_module_hash_ = getelementptr inbounds i8, ptr %this, i64 34
  %4 = load i8, ptr %use_module_hash_, align 2
  %5 = and i8 %4, 1
  %tobool.not = icmp eq i8 %5, 0
  %table_size_ = getelementptr inbounds i8, ptr %this, i64 136
  %6 = load i64, ptr %table_size_, align 8
  %identity_as_first_hash_ = getelementptr inbounds i8, ptr %this, i64 33
  %7 = load i8, ptr %identity_as_first_hash_, align 1
  %8 = and i8 %7, 1
  %tobool3.not = icmp eq i8 %8, 0
  br i1 %tobool3.not, label %if.else.i, label %if.then.i

if.then.i:                                        ; preds = %entry
  %9 = load i64, ptr %0, align 8
  br label %if.end.i

if.else.i:                                        ; preds = %entry
  %size_.i.i = getelementptr inbounds i8, ptr %key, i64 8
  %10 = load i64, ptr %size_.i.i, align 8
  %11 = trunc i64 %10 to i32
  %conv.i = add i32 %11, -8
  %call4.i = tail call noundef i64 @_Z13MurmurHash64APKvij(ptr noundef %0, i32 noundef %conv.i, i32 noundef 0)
  br label %if.end.i

if.end.i:                                         ; preds = %if.else.i, %if.then.i
  %value.0.i = phi i64 [ %9, %if.then.i ], [ %call4.i, %if.else.i ]
  br i1 %tobool.not, label %if.else7.i, label %if.then6.i

if.then6.i:                                       ; preds = %if.end.i
  %rem.i = urem i64 %value.0.i, %6
  br label %_ZN7rocksdbL10CuckooHashERKNS_5SliceEjbmbPFmS2_jmE.exit

if.else7.i:                                       ; preds = %if.end.i
  %sub.i6 = add i64 %6, -1
  %and.i = and i64 %value.0.i, %sub.i6
  br label %_ZN7rocksdbL10CuckooHashERKNS_5SliceEjbmbPFmS2_jmE.exit

_ZN7rocksdbL10CuckooHashERKNS_5SliceEjbmbPFmS2_jmE.exit: ; preds = %if.then6.i, %if.else7.i
  %retval.0.i = phi i64 [ %rem.i, %if.then6.i ], [ %and.i, %if.else7.i ]
  %mul = mul i64 %retval.0.i, %conv
  %add = add i64 %mul, %2
  %cuckoo_block_bytes_minus_one_ = getelementptr inbounds i8, ptr %this, i64 132
  %12 = load i32, ptr %cuckoo_block_bytes_minus_one_, align 4
  %conv5 = zext i32 %12 to i64
  %add6 = add i64 %add, %conv5
  %and = and i64 %add, -64
  %cmp7 = icmp ult i64 %and, %add6
  br i1 %cmp7, label %for.body, label %for.end

for.body:                                         ; preds = %_ZN7rocksdbL10CuckooHashERKNS_5SliceEjbmbPFmS2_jmE.exit, %for.body
  %addr.08 = phi i64 [ %add7, %for.body ], [ %and, %_ZN7rocksdbL10CuckooHashERKNS_5SliceEjbmbPFmS2_jmE.exit ]
  %13 = inttoptr i64 %addr.08 to ptr
  tail call void @llvm.prefetch.p0(ptr %13, i32 0, i32 3, i32 1)
  %add7 = add i64 %addr.08, 64
  %cmp = icmp ult i64 %add7, %add6
  br i1 %cmp, label %for.body, label %for.end, !llvm.loop !12

for.end:                                          ; preds = %for.body, %_ZN7rocksdbL10CuckooHashERKNS_5SliceEjbmbPFmS2_jmE.exit
  ret void
}